target datalayout = "e-m:e-p270:32:32-p271:32:32-p272:64:64-i64:64-i128:128-f80:128-n8:16:32:64-S128"
target triple = "x86_64-pc-linux-gnu"

%struct.ReorderingScheme = type { i8, i32, i8, i32, i32, i32, i8, [7 x ptr] }
%struct.UBiDiTransform = type { ptr, ptr, ptr, ptr, i32, i32, i32, ptr, i32, i32, i32 }

; Function Attrs: mustprogress uwtable
define internal void @_ZL9updateSrcP14UBiDiTransformPKDsjjP10UErrorCode(ptr noundef %0, ptr noundef %1, i32 noundef %2, i32 noundef %3, ptr noundef %4) #0 {
  %6 = alloca ptr, align 8
  %7 = alloca ptr, align 8
  %8 = alloca i32, align 4
  %9 = alloca i32, align 4
  %10 = alloca ptr, align 8
  store ptr %0, ptr %6, align 8, !tbaa !7
  store ptr %1, ptr %7, align 8, !tbaa !18
  store i32 %2, ptr %8, align 4, !tbaa !19
  store i32 %3, ptr %9, align 4, !tbaa !19
  store ptr %4, ptr %10, align 8, !tbaa !3
  %11 = load i32, ptr %9, align 4, !tbaa !19
  %12 = load i32, ptr %8, align 4, !tbaa !19
  %13 = icmp ult i32 %11, %12
  br i1 %13, label %14, label %16

14:                                               ; preds = %5
  %15 = load ptr, ptr %10, align 8, !tbaa !3
  store i32 15, ptr %15, align 4, !tbaa !9
  br label %70

16:                                               ; preds = %5
  %17 = load i32, ptr %9, align 4, !tbaa !19
  %18 = load ptr, ptr %6, align 8, !tbaa !7
  %19 = getelementptr inbounds nuw %struct.UBiDiTransform, ptr %18, i32 0, i32 5
  %20 = load i32, ptr %19, align 4, !tbaa !45
  %21 = icmp ugt i32 %17, %20
  br i1 %21, label %22, label %52

22:                                               ; preds = %16
  %23 = load i32, ptr %9, align 4, !tbaa !19
  %24 = add i32 %23, 50
  store i32 %24, ptr %9, align 4, !tbaa !19
  %25 = load ptr, ptr %6, align 8, !tbaa !7
  %26 = getelementptr inbounds nuw %struct.UBiDiTransform, ptr %25, i32 0, i32 2
  %27 = load ptr, ptr %26, align 8, !tbaa !17
  %28 = icmp ne ptr %27, null
  br i1 %28, label %29, label %35

29:                                               ; preds = %22
  %30 = load ptr, ptr %6, align 8, !tbaa !7
  %31 = getelementptr inbounds nuw %struct.UBiDiTransform, ptr %30, i32 0, i32 2
  %32 = load ptr, ptr %31, align 8, !tbaa !17
  call void @uprv_free_77(ptr noundef %32)
  %33 = load ptr, ptr %6, align 8, !tbaa !7
  %34 = getelementptr inbounds nuw %struct.UBiDiTransform, ptr %33, i32 0, i32 2
  store ptr null, ptr %34, align 8, !tbaa !17
  br label %35

35:                                               ; preds = %29, %22
  %36 = load i32, ptr %9, align 4, !tbaa !19
  %37 = zext i32 %36 to i64
  %38 = mul i64 %37, 2
  %39 = call noalias ptr @uprv_malloc_77(i64 noundef %38) #9
  %40 = load ptr, ptr %6, align 8, !tbaa !7
  %41 = getelementptr inbounds nuw %struct.UBiDiTransform, ptr %40, i32 0, i32 2
  store ptr %39, ptr %41, align 8, !tbaa !17
  %42 = load ptr, ptr %6, align 8, !tbaa !7
  %43 = getelementptr inbounds nuw %struct.UBiDiTransform, ptr %42, i32 0, i32 2
  %44 = load ptr, ptr %43, align 8, !tbaa !17
  %45 = icmp eq ptr %44, null
  br i1 %45, label %46, label %48

46:                                               ; preds = %35
  %47 = load ptr, ptr %10, align 8, !tbaa !3
  store i32 7, ptr %47, align 4, !tbaa !9
  br label %70

48:                                               ; preds = %35
  %49 = load i32, ptr %9, align 4, !tbaa !19
  %50 = load ptr, ptr %6, align 8, !tbaa !7
  %51 = getelementptr inbounds nuw %struct.UBiDiTransform, ptr %50, i32 0, i32 5
  store i32 %49, ptr %51, align 4, !tbaa !45
  br label %52

52:                                               ; preds = %48, %16
  %53 = load ptr, ptr %6, align 8, !tbaa !7
  %54 = getelementptr inbounds nuw %struct.UBiDiTransform, ptr %53, i32 0, i32 2
  %55 = load ptr, ptr %54, align 8, !tbaa !17
  %56 = load ptr, ptr %7, align 8, !tbaa !18
  %57 = load i32, ptr %8, align 4, !tbaa !19
  %58 = call ptr @u_strncpy_77(ptr noundef %55, ptr noundef %56, i32 noundef %57)
  %59 = load ptr, ptr %6, align 8, !tbaa !7
  %60 = getelementptr inbounds nuw %struct.UBiDiTransform, ptr %59, i32 0, i32 2
  %61 = load ptr, ptr %60, align 8, !tbaa !17
  %62 = load ptr, ptr %6, align 8, !tbaa !7
  %63 = getelementptr inbounds nuw %struct.UBiDiTransform, ptr %62, i32 0, i32 5
  %64 = load i32, ptr %63, align 4, !tbaa !45
  %65 = load i32, ptr %8, align 4, !tbaa !19
  %66 = load ptr, ptr %10, align 8, !tbaa !3
  %67 = call i32 @u_terminateUChars_77(ptr noundef %61, i32 noundef %64, i32 noundef %65, ptr noundef %66)
  %68 = load ptr, ptr %6, align 8, !tbaa !7
  %69 = getelementptr inbounds nuw %struct.UBiDiTransform, ptr %68, i32 0, i32 4
  store i32 %67, ptr %69, align 8, !tbaa !36
  br label %70

70:                                               ; preds = %52, %46, %14
  ret void
}

; Function Attrs: inlinehint mustprogress nounwind uwtable
define internal noundef signext i8 @_ZL9U_SUCCESS10UErrorCode(i32 noundef %0) #2 {
  %2 = alloca i32, align 4
  store i32 %0, ptr %2, align 4, !tbaa !9
  %3 = load i32, ptr %2, align 4, !tbaa !9
  %4 = icmp sle i32 %3, 0
  %5 = zext i1 %4 to i8
  ret i8 %5
}

; Function Attrs: mustprogress uwtable
define internal void @_ZL7doShapeP14UBiDiTransformjP10UErrorCode(ptr noundef %0, i32 noundef %1, ptr noundef %2) #0 {
  %4 = alloca ptr, align 8
  %5 = alloca i32, align 4
  %6 = alloca ptr, align 8
  store ptr %0, ptr %4, align 8, !tbaa !7
  store i32 %1, ptr %5, align 4, !tbaa !19
  store ptr %2, ptr %6, align 8, !tbaa !3
  %7 = load ptr, ptr %4, align 8, !tbaa !7
  %8 = getelementptr inbounds nuw %struct.UBiDiTransform, ptr %7, i32 0, i32 2
  %9 = load ptr, ptr %8, align 8, !tbaa !17
  %10 = load ptr, ptr %4, align 8, !tbaa !7
  %11 = getelementptr inbounds nuw %struct.UBiDiTransform, ptr %10, i32 0, i32 4
  %12 = load i32, ptr %11, align 8, !tbaa !36
  %13 = load ptr, ptr %4, align 8, !tbaa !7
  %14 = getelementptr inbounds nuw %struct.UBiDiTransform, ptr %13, i32 0, i32 3
  %15 = load ptr, ptr %14, align 8, !tbaa !31
  %16 = load ptr, ptr %4, align 8, !tbaa !7
  %17 = getelementptr inbounds nuw %struct.UBiDiTransform, ptr %16, i32 0, i32 6
  %18 = load i32, ptr %17, align 8, !tbaa !32
  %19 = load i32, ptr %5, align 4, !tbaa !19
  %20 = load ptr, ptr %6, align 8, !tbaa !3
  %21 = call i32 @u_shapeArabic_77(ptr noundef %9, i32 noundef %12, ptr noundef %15, i32 noundef %18, i32 noundef %19, ptr noundef %20)
  %22 = load ptr, ptr %4, align 8, !tbaa !7
  %23 = getelementptr inbounds nuw %struct.UBiDiTransform, ptr %22, i32 0, i32 7
  %24 = load ptr, ptr %23, align 8, !tbaa !33
  store i32 %21, ptr %24, align 4, !tbaa !19
  ret void
}

; Function Attrs: mustprogress uwtable
define internal noundef signext i8 @_ZL18action_shapeArabicP14UBiDiTransformP10UErrorCode(ptr noundef %0, ptr noundef %1) #0 {
  %3 = alloca i8, align 1
  %4 = alloca ptr, align 8
  %5 = alloca ptr, align 8
  store ptr %0, ptr %4, align 8, !tbaa !7
  store ptr %1, ptr %5, align 8, !tbaa !3
  %6 = load ptr, ptr %4, align 8, !tbaa !7
  %7 = getelementptr inbounds nuw %struct.UBiDiTransform, ptr %6, i32 0, i32 10
  %8 = load i32, ptr %7, align 8, !tbaa !30
  %9 = load ptr, ptr %4, align 8, !tbaa !7
  %10 = getelementptr inbounds nuw %struct.UBiDiTransform, ptr %9, i32 0, i32 9
  %11 = load i32, ptr %10, align 4, !tbaa !29
  %12 = or i32 %8, %11
  %13 = icmp eq i32 %12, 0
  br i1 %13, label %14, label %15

14:                                               ; preds = %2
  store i8 0, ptr %3, align 1
  br label %86

15:                                               ; preds = %2
  %16 = load ptr, ptr %4, align 8, !tbaa !7
  %17 = getelementptr inbounds nuw %struct.UBiDiTransform, ptr %16, i32 0, i32 1
  %18 = load ptr, ptr %17, align 8, !tbaa !27
  %19 = getelementptr inbounds nuw %struct.ReorderingScheme, ptr %18, i32 0, i32 5
  %20 = load i32, ptr %19, align 4, !tbaa !46
  %21 = load ptr, ptr %4, align 8, !tbaa !7
  %22 = getelementptr inbounds nuw %struct.UBiDiTransform, ptr %21, i32 0, i32 1
  %23 = load ptr, ptr %22, align 8, !tbaa !27
  %24 = getelementptr inbounds nuw %struct.ReorderingScheme, ptr %23, i32 0, i32 4
  %25 = load i32, ptr %24, align 8, !tbaa !47
  %26 = icmp eq i32 %20, %25
  br i1 %26, label %27, label %43

27:                                               ; preds = %15
  %28 = load ptr, ptr %4, align 8, !tbaa !7
  %29 = load ptr, ptr %4, align 8, !tbaa !7
  %30 = getelementptr inbounds nuw %struct.UBiDiTransform, ptr %29, i32 0, i32 10
  %31 = load i32, ptr %30, align 8, !tbaa !30
  %32 = load ptr, ptr %4, align 8, !tbaa !7
  %33 = getelementptr inbounds nuw %struct.UBiDiTransform, ptr %32, i32 0, i32 9
  %34 = load i32, ptr %33, align 4, !tbaa !29
  %35 = or i32 %31, %34
  %36 = load ptr, ptr %4, align 8, !tbaa !7
  %37 = getelementptr inbounds nuw %struct.UBiDiTransform, ptr %36, i32 0, i32 1
  %38 = load ptr, ptr %37, align 8, !tbaa !27
  %39 = getelementptr inbounds nuw %struct.ReorderingScheme, ptr %38, i32 0, i32 5
  %40 = load i32, ptr %39, align 4, !tbaa !46
  %41 = or i32 %35, %40
  %42 = load ptr, ptr %5, align 8, !tbaa !3
  call void @_ZL7doShapeP14UBiDiTransformjP10UErrorCode(ptr noundef %28, i32 noundef %41, ptr noundef %42)
  br label %85

43:                                               ; preds = %15
  %44 = load ptr, ptr %4, align 8, !tbaa !7
  %45 = load ptr, ptr %4, align 8, !tbaa !7
  %46 = getelementptr inbounds nuw %struct.UBiDiTransform, ptr %45, i32 0, i32 9
  %47 = load i32, ptr %46, align 4, !tbaa !29
  %48 = load ptr, ptr %4, align 8, !tbaa !7
  %49 = getelementptr inbounds nuw %struct.UBiDiTransform, ptr %48, i32 0, i32 1
  %50 = load ptr, ptr %49, align 8, !tbaa !27
  %51 = getelementptr inbounds nuw %struct.ReorderingScheme, ptr %50, i32 0, i32 4
  %52 = load i32, ptr %51, align 8, !tbaa !47
  %53 = or i32 %47, %52
  %54 = load ptr, ptr %5, align 8, !tbaa !3
  call void @_ZL7doShapeP14UBiDiTransformjP10UErrorCode(ptr noundef %44, i32 noundef %53, ptr noundef %54)
  %55 = load ptr, ptr %5, align 8, !tbaa !3
  %56 = load i32, ptr %55, align 4, !tbaa !9
  %57 = call noundef signext i8 @_ZL9U_SUCCESS10UErrorCode(i32 noundef %56)
  %58 = icmp ne i8 %57, 0
  br i1 %58, label %59, label %84

59:                                               ; preds = %43
  %60 = load ptr, ptr %4, align 8, !tbaa !7
  %61 = load ptr, ptr %4, align 8, !tbaa !7
  %62 = getelementptr inbounds nuw %struct.UBiDiTransform, ptr %61, i32 0, i32 3
  %63 = load ptr, ptr %62, align 8, !tbaa !31
  %64 = load ptr, ptr %4, align 8, !tbaa !7
  %65 = getelementptr inbounds nuw %struct.UBiDiTransform, ptr %64, i32 0, i32 7
  %66 = load ptr, ptr %65, align 8, !tbaa !33
  %67 = load i32, ptr %66, align 4, !tbaa !19
  %68 = load ptr, ptr %4, align 8, !tbaa !7
  %69 = getelementptr inbounds nuw %struct.UBiDiTransform, ptr %68, i32 0, i32 7
  %70 = load ptr, ptr %69, align 8, !tbaa !33
  %71 = load i32, ptr %70, align 4, !tbaa !19
  %72 = load ptr, ptr %5, align 8, !tbaa !3
  call void @_ZL9updateSrcP14UBiDiTransformPKDsjjP10UErrorCode(ptr noundef %60, ptr noundef %63, i32 noundef %67, i32 noundef %71, ptr noundef %72)
  %73 = load ptr, ptr %4, align 8, !tbaa !7
  %74 = load ptr, ptr %4, align 8, !tbaa !7
  %75 = getelementptr inbounds nuw %struct.UBiDiTransform, ptr %74, i32 0, i32 10
  %76 = load i32, ptr %75, align 8, !tbaa !30
  %77 = load ptr, ptr %4, align 8, !tbaa !7
  %78 = getelementptr inbounds nuw %struct.UBiDiTransform, ptr %77, i32 0, i32 1
  %79 = load ptr, ptr %78, align 8, !tbaa !27
  %80 = getelementptr inbounds nuw %struct.ReorderingScheme, ptr %79, i32 0, i32 5
  %81 = load i32, ptr %80, align 4, !tbaa !46
  %82 = or i32 %76, %81
  %83 = load ptr, ptr %5, align 8, !tbaa !3
  call void @_ZL7doShapeP14UBiDiTransformjP10UErrorCode(ptr noundef %73, i32 noundef %82, ptr noundef %83)
  br label %84

84:                                               ; preds = %59, %43
  br label %85

85:                                               ; preds = %84, %27
  store i8 1, ptr %3, align 1
  br label %86

86:                                               ; preds = %85, %14
  %87 = load i8, ptr %3, align 1
  ret i8 %87
}