; Function Attrs: mustprogress uwtable
define internal noundef signext range(i8 0, 2) i8 @_ZL18action_shapeArabicP14UBiDiTransformP10UErrorCode(ptr noundef captures(none) %0, ptr noundef %1) #0 {
  %3 = getelementptr inbounds nuw i8, ptr %0, i64 64
  %4 = load i32, ptr %3, align 8, !tbaa !28
  %5 = getelementptr inbounds nuw i8, ptr %0, i64 60
  %6 = load i32, ptr %5, align 4, !tbaa !27
  %7 = or i32 %6, %4
  %8 = icmp eq i32 %7, 0
  br i1 %8, label %68, label %9

9:                                                ; preds = %2
  %10 = getelementptr inbounds nuw i8, ptr %0, i64 8
  %11 = load ptr, ptr %10, align 8, !tbaa !25
  %12 = getelementptr inbounds nuw i8, ptr %11, i64 20
  %13 = load i32, ptr %12, align 4, !tbaa !36
  %14 = getelementptr inbounds nuw i8, ptr %11, i64 16
  %15 = load i32, ptr %14, align 8, !tbaa !37
  %16 = icmp eq i32 %13, %15
  %17 = getelementptr inbounds nuw i8, ptr %0, i64 16
  %18 = load ptr, ptr %17, align 8, !tbaa !14
  %19 = getelementptr inbounds nuw i8, ptr %0, i64 32
  %20 = load i32, ptr %19, align 8, !tbaa !34
  %21 = getelementptr inbounds nuw i8, ptr %0, i64 24
  %22 = load ptr, ptr %21, align 8, !tbaa !29
  %23 = getelementptr inbounds nuw i8, ptr %0, i64 40
  %24 = load i32, ptr %23, align 8, !tbaa !30
  %25 = getelementptr inbounds nuw i8, ptr %0, i64 48
  br i1 %16, label %26, label %29

26:                                               ; preds = %9
  %27 = or i32 %13, %7
  %28 = tail call i32 @u_shapeArabic_77(ptr noundef %18, i32 noundef %20, ptr noundef %22, i32 noundef %24, i32 noundef %27, ptr noundef %1)
  br label %.sink.split

29:                                               ; preds = %9
  %30 = or i32 %15, %6
  %31 = tail call i32 @u_shapeArabic_77(ptr noundef %18, i32 noundef %20, ptr noundef %22, i32 noundef %24, i32 noundef %30, ptr noundef %1)
  %32 = load ptr, ptr %25, align 8, !tbaa !31
  store i32 %31, ptr %32, align 4, !tbaa !16
  %33 = load i32, ptr %1, align 4, !tbaa !3
  %34 = icmp sgt i32 %33, 0
  br i1 %34, label %68, label %35

35:                                               ; preds = %29
  %36 = load ptr, ptr %21, align 8, !tbaa !29
  %37 = getelementptr inbounds nuw i8, ptr %0, i64 36
  %38 = load i32, ptr %37, align 4, !tbaa !35
  %39 = icmp ugt i32 %31, %38
  br i1 %39, label %40, label %._crit_edge.i

._crit_edge.i:                                    ; preds = %35
  %.pre.i = load ptr, ptr %17, align 8, !tbaa !14
  br label %51

40:                                               ; preds = %35
  %41 = add i32 %31, 50
  %42 = load ptr, ptr %17, align 8, !tbaa !14
  %.not.i = icmp eq ptr %42, null
  br i1 %.not.i, label %44, label %43

43:                                               ; preds = %40
  tail call void @uprv_free_77(ptr noundef nonnull %42)
  store ptr null, ptr %17, align 8, !tbaa !14
  br label %44

44:                                               ; preds = %43, %40
  %45 = zext i32 %41 to i64
  %46 = shl nuw nsw i64 %45, 1
  %47 = tail call noalias ptr @uprv_malloc_77(i64 noundef %46) #8
  store ptr %47, ptr %17, align 8, !tbaa !14
  %48 = icmp eq ptr %47, null
  br i1 %48, label %49, label %50

49:                                               ; preds = %44
  store i32 7, ptr %1, align 4, !tbaa !3
  %.pre26 = load i32, ptr %19, align 8, !tbaa !34
  br label %_ZL9updateSrcP14UBiDiTransformPKDsjjP10UErrorCode.exit

50:                                               ; preds = %44
  store i32 %41, ptr %37, align 4, !tbaa !35
  br label %51

51:                                               ; preds = %50, %._crit_edge.i
  %52 = phi ptr [ %.pre.i, %._crit_edge.i ], [ %47, %50 ]
  %53 = tail call ptr @u_strncpy_77(ptr noundef %52, ptr noundef %36, i32 noundef %31)
  %54 = load ptr, ptr %17, align 8, !tbaa !14
  %55 = load i32, ptr %37, align 4, !tbaa !35
  %56 = tail call i32 @u_terminateUChars_77(ptr noundef %54, i32 noundef %55, i32 noundef %31, ptr noundef nonnull %1)
  store i32 %56, ptr %19, align 8, !tbaa !34
  %.pre = load ptr, ptr %17, align 8, !tbaa !14
  br label %_ZL9updateSrcP14UBiDiTransformPKDsjjP10UErrorCode.exit

_ZL9updateSrcP14UBiDiTransformPKDsjjP10UErrorCode.exit: ; preds = %49, %51
  %57 = phi i32 [ %.pre26, %49 ], [ %56, %51 ]
  %58 = phi ptr [ null, %49 ], [ %.pre, %51 ]
  %59 = load i32, ptr %3, align 8, !tbaa !28
  %60 = load ptr, ptr %10, align 8, !tbaa !25
  %61 = getelementptr inbounds nuw i8, ptr %60, i64 20
  %62 = load i32, ptr %61, align 4, !tbaa !36
  %63 = or i32 %62, %59
  %64 = load ptr, ptr %21, align 8, !tbaa !29
  %65 = load i32, ptr %23, align 8, !tbaa !30
  %66 = tail call i32 @u_shapeArabic_77(ptr noundef %58, i32 noundef %57, ptr noundef %64, i32 noundef %65, i32 noundef %63, ptr noundef nonnull %1)
  br label %.sink.split

.sink.split:                                      ; preds = %_ZL9updateSrcP14UBiDiTransformPKDsjjP10UErrorCode.exit, %26
  %.sink = phi i32 [ %28, %26 ], [ %66, %_ZL9updateSrcP14UBiDiTransformPKDsjjP10UErrorCode.exit ]
  %67 = load ptr, ptr %25, align 8, !tbaa !31
  store i32 %.sink, ptr %67, align 4, !tbaa !16
  br label %68

68:                                               ; preds = %.sink.split, %29, %2
  %.0 = phi i8 [ 0, %2 ], [ 1, %29 ], [ 1, %.sink.split ]
  ret i8 %.0
}